; Function Attrs: mustprogress nounwind uwtable
define hidden void @_ZN6hermes3hbc22generateBytecodeModuleEPNS_6ModuleEPNS_8FunctionERKNS_25BytecodeGenerationOptionsENS_8OptValueIjEEPNS_18SourceMapGeneratorESt10unique_ptrINS0_14BCProviderBaseESt14default_deleteISD_EE(ptr noalias sret(%"class.std::unique_ptr") align 8 %agg.result, ptr noundef %M, ptr noundef %entryPoint, ptr noundef nonnull align 4 dereferenceable(17) %options, i64 %segment.coerce, ptr noundef %sourceMapGen, ptr nocapture noundef %baseBCProvider) local_unnamed_addr #0 {
entry:
  %agg.tmp1 = alloca %"class.std::unique_ptr.2", align 8
  %0 = load i64, ptr %baseBCProvider, align 8
  store i64 %0, ptr %agg.tmp1, align 8
  store ptr null, ptr %baseBCProvider, align 8
  call void @_ZN6hermes3hbc22generateBytecodeModuleEPNS_6ModuleEPNS_8FunctionES4_RKNS_25BytecodeGenerationOptionsENS_8OptValueIjEEPNS_18SourceMapGeneratorESt10unique_ptrINS0_14BCProviderBaseESt14default_deleteISD_EE(ptr sret(%"class.std::unique_ptr") align 8 %agg.result, ptr noundef %M, ptr noundef %entryPoint, ptr noundef %entryPoint, ptr noundef nonnull align 4 dereferenceable(17) %options, i64 %segment.coerce, ptr noundef %sourceMapGen, ptr noundef nonnull %agg.tmp1)
  %cmp.not.i = icmp eq i64 %0, 0
  br i1 %cmp.not.i, label %_ZNSt10unique_ptrIN6hermes3hbc14BCProviderBaseESt14default_deleteIS2_EED2Ev.exit, label %_ZNKSt14default_deleteIN6hermes3hbc14BCProviderBaseEEclEPS2_.exit.i

_ZNKSt14default_deleteIN6hermes3hbc14BCProviderBaseEEclEPS2_.exit.i: ; preds = %entry
  %.cast = inttoptr i64 %0 to ptr
  %vtable.i.i = load ptr, ptr %.cast, align 8
  %vfn.i.i = getelementptr inbounds i8, ptr %vtable.i.i, i64 72
  %1 = load ptr, ptr %vfn.i.i, align 8
  tail call void %1(ptr noundef nonnull align 8 dereferenceable(280) %.cast) #18
  br label %_ZNSt10unique_ptrIN6hermes3hbc14BCProviderBaseESt14default_deleteIS2_EED2Ev.exit

_ZNSt10unique_ptrIN6hermes3hbc14BCProviderBaseESt14default_deleteIS2_EED2Ev.exit: ; preds = %entry, %_ZNKSt14default_deleteIN6hermes3hbc14BCProviderBaseEEclEPS2_.exit.i
  ret void
}